target datalayout = "e-m:e-p270:32:32-p271:32:32-p272:64:64-i64:64-i128:128-f80:128-n8:16:32:64-S128"
target triple = "x86_64-pc-linux-gnu"

%struct._packet_info = type { ptr, ptr, i32, i32, %struct.nstime_t, %struct.nstime_t, %struct.nstime_t, i8, ptr, ptr, ptr, ptr, %struct._address, %struct._address, %struct._address, %struct._address, %struct._address, %struct._address, i32, ptr, i8, [3 x i8], %struct.anon, i32, i32, i32, i32, ptr, i8, ptr, ptr, i16, i16, i32, i32, i16, i32, i32, ptr, ptr, ptr, i8, i8, i16, i16, i16, i32, i16, i16, ptr, ptr, ptr, ptr, ptr, i32, i32 }
%struct.nstime_t = type { i64, i32 }
%struct._address = type { i32, i32, ptr, ptr }
%struct.anon = type { i8, [3 x i8] }

@ieee802_15_4_short_address_type = internal global i32 -1, align 4
@.str.725 = private unnamed_addr constant [5 x i8] c"wpan\00", align 1

; Function Attrs: null_pointer_is_valid sspstrong uwtable
define internal zeroext i1 @ieee802154_filter_valid(ptr noundef %0, ptr noundef %1) #0 {
  %3 = alloca ptr, align 8
  %4 = alloca ptr, align 8
  store ptr %0, ptr %3, align 8
  store ptr %1, ptr %4, align 8
  %5 = load ptr, ptr %3, align 8
  %6 = getelementptr inbounds nuw %struct._packet_info, ptr %5, i32 0, i32 39
  %7 = load ptr, ptr %6, align 8
  %8 = call zeroext i1 @proto_is_frame_protocol(ptr noundef %7, ptr noundef @.str.725)
  br i1 %8, label %9, label %37

9:                                                ; preds = %2
  %10 = load ptr, ptr %3, align 8
  %11 = getelementptr inbounds nuw %struct._packet_info, ptr %10, i32 0, i32 12
  %12 = getelementptr inbounds nuw %struct._address, ptr %11, i32 0, i32 0
  %13 = load i32, ptr %12, align 8
  %14 = load i32, ptr @ieee802_15_4_short_address_type, align 4
  %15 = icmp eq i32 %13, %14
  br i1 %15, label %22, label %16

16:                                               ; preds = %9
  %17 = load ptr, ptr %3, align 8
  %18 = getelementptr inbounds nuw %struct._packet_info, ptr %17, i32 0, i32 12
  %19 = getelementptr inbounds nuw %struct._address, ptr %18, i32 0, i32 0
  %20 = load i32, ptr %19, align 8
  %21 = icmp eq i32 %20, 8
  br i1 %21, label %22, label %37

22:                                               ; preds = %16, %9
  %23 = load ptr, ptr %3, align 8
  %24 = getelementptr inbounds nuw %struct._packet_info, ptr %23, i32 0, i32 13
  %25 = getelementptr inbounds nuw %struct._address, ptr %24, i32 0, i32 0
  %26 = load i32, ptr %25, align 8
  %27 = load i32, ptr @ieee802_15_4_short_address_type, align 4
  %28 = icmp eq i32 %26, %27
  br i1 %28, label %35, label %29

29:                                               ; preds = %22
  %30 = load ptr, ptr %3, align 8
  %31 = getelementptr inbounds nuw %struct._packet_info, ptr %30, i32 0, i32 13
  %32 = getelementptr inbounds nuw %struct._address, ptr %31, i32 0, i32 0
  %33 = load i32, ptr %32, align 8
  %34 = icmp eq i32 %33, 8
  br label %35

35:                                               ; preds = %29, %22
  %36 = phi i1 [ true, %22 ], [ %34, %29 ]
  br label %37

37:                                               ; preds = %35, %16, %2
  %38 = phi i1 [ false, %16 ], [ false, %2 ], [ %36, %35 ]
  ret i1 %38
}