; Function Attrs: null_pointer_is_valid sspstrong uwtable
define internal zeroext i1 @ieee802154_filter_valid(ptr noundef readonly captures(none) %0, ptr readnone captures(none) %1) #0 {
  %3 = getelementptr inbounds nuw i8, ptr %0, i64 360
  %4 = load ptr, ptr %3, align 8
  %5 = tail call zeroext i1 @proto_is_frame_protocol(ptr noundef %4, ptr noundef nonnull @.str.725)
  br i1 %5, label %6, label %17

6:                                                ; preds = %2
  %7 = getelementptr inbounds nuw i8, ptr %0, i64 112
  %8 = load i32, ptr %7, align 8
  %9 = load i32, ptr @ieee802_15_4_short_address_type, align 4
  %10 = icmp eq i32 %8, %9
  %11 = icmp eq i32 %8, 8
  %or.cond = or i1 %11, %10
  br i1 %or.cond, label %12, label %17

12:                                               ; preds = %6
  %13 = getelementptr inbounds nuw i8, ptr %0, i64 136
  %14 = load i32, ptr %13, align 8
  %15 = icmp eq i32 %14, %9
  %16 = icmp eq i32 %14, 8
  %spec.select = or i1 %15, %16
  br label %17

17:                                               ; preds = %12, %6, %2
  %18 = phi i1 [ false, %2 ], [ false, %6 ], [ %spec.select, %12 ]
  ret i1 %18
}